; Listing generated by Microsoft (R) Optimizing Compiler Version 19.12.25831.0 

	TITLE	C:\Repos\Galaxy\Galaxy\Engine\Math\Vectors\Quaternion.cpp
	.686P
	.XMM
	include listing.inc
	.model	flat

INCLUDELIB MSVCRTD
INCLUDELIB OLDNAMES

PUBLIC	?__empty_global_delete@@YAXPAX@Z		; __empty_global_delete
PUBLIC	?__empty_global_delete@@YAXPAXI@Z		; __empty_global_delete
PUBLIC	??0Quaternion@Math@Engine@@QAE@MMMM@Z		; Engine::Math::Quaternion::Quaternion
EXTRN	??0Vec3f@Math@Engine@@QAE@MMM@Z:PROC		; Engine::Math::Vec3f::Vec3f
EXTRN	__RTC_CheckEsp:PROC
EXTRN	__RTC_InitBase:PROC
EXTRN	__RTC_Shutdown:PROC
EXTRN	__fltused:DWORD
;	COMDAT rtc$TMZ
rtc$TMZ	SEGMENT
__RTC_Shutdown.rtc$TMZ DD FLAT:__RTC_Shutdown
rtc$TMZ	ENDS
;	COMDAT rtc$IMZ
rtc$IMZ	SEGMENT
__RTC_InitBase.rtc$IMZ DD FLAT:__RTC_InitBase
rtc$IMZ	ENDS
; Function compile flags: /Odtp /RTCsu /ZI
; File c:\repos\galaxy\galaxy\engine\math\vectors\quaternion.cpp
;	COMDAT ??0Quaternion@Math@Engine@@QAE@MMMM@Z
_TEXT	SEGMENT
$T1 = -220						; size = 12
_this$ = -8						; size = 4
_i$ = 8							; size = 4
_j$ = 12						; size = 4
_k$ = 16						; size = 4
_l$ = 20						; size = 4
??0Quaternion@Math@Engine@@QAE@MMMM@Z PROC		; Engine::Math::Quaternion::Quaternion, COMDAT
; _this$ = ecx

; 7    : 		{}

  00000	55		 push	 ebp
  00001	8b ec		 mov	 ebp, esp
  00003	81 ec e0 00 00
	00		 sub	 esp, 224		; 000000e0H
  00009	53		 push	 ebx
  0000a	56		 push	 esi
  0000b	57		 push	 edi
  0000c	51		 push	 ecx
  0000d	8d bd 20 ff ff
	ff		 lea	 edi, DWORD PTR [ebp-224]
  00013	b9 38 00 00 00	 mov	 ecx, 56			; 00000038H
  00018	b8 cc cc cc cc	 mov	 eax, -858993460		; ccccccccH
  0001d	f3 ab		 rep stosd
  0001f	59		 pop	 ecx
  00020	89 4d f8	 mov	 DWORD PTR _this$[ebp], ecx

; 6    : 			:m_Vector({ i, j, k }), m_Scalar(l)

  00023	51		 push	 ecx
  00024	f3 0f 10 45 10	 movss	 xmm0, DWORD PTR _k$[ebp]
  00029	f3 0f 11 04 24	 movss	 DWORD PTR [esp], xmm0
  0002e	51		 push	 ecx
  0002f	f3 0f 10 45 0c	 movss	 xmm0, DWORD PTR _j$[ebp]
  00034	f3 0f 11 04 24	 movss	 DWORD PTR [esp], xmm0
  00039	51		 push	 ecx
  0003a	f3 0f 10 45 08	 movss	 xmm0, DWORD PTR _i$[ebp]
  0003f	f3 0f 11 04 24	 movss	 DWORD PTR [esp], xmm0
  00044	8d 8d 24 ff ff
	ff		 lea	 ecx, DWORD PTR $T1[ebp]
  0004a	e8 00 00 00 00	 call	 ??0Vec3f@Math@Engine@@QAE@MMM@Z ; Engine::Math::Vec3f::Vec3f
  0004f	8b 45 f8	 mov	 eax, DWORD PTR _this$[ebp]
  00052	8b 8d 24 ff ff
	ff		 mov	 ecx, DWORD PTR $T1[ebp]
  00058	89 08		 mov	 DWORD PTR [eax], ecx
  0005a	8b 95 28 ff ff
	ff		 mov	 edx, DWORD PTR $T1[ebp+4]
  00060	89 50 04	 mov	 DWORD PTR [eax+4], edx
  00063	8b 8d 2c ff ff
	ff		 mov	 ecx, DWORD PTR $T1[ebp+8]
  00069	89 48 08	 mov	 DWORD PTR [eax+8], ecx
  0006c	8b 45 f8	 mov	 eax, DWORD PTR _this$[ebp]
  0006f	f3 0f 10 45 14	 movss	 xmm0, DWORD PTR _l$[ebp]
  00074	f3 0f 11 40 0c	 movss	 DWORD PTR [eax+12], xmm0

; 7    : 		{}

  00079	8b 45 f8	 mov	 eax, DWORD PTR _this$[ebp]
  0007c	5f		 pop	 edi
  0007d	5e		 pop	 esi
  0007e	5b		 pop	 ebx
  0007f	81 c4 e0 00 00
	00		 add	 esp, 224		; 000000e0H
  00085	3b ec		 cmp	 ebp, esp
  00087	e8 00 00 00 00	 call	 __RTC_CheckEsp
  0008c	8b e5		 mov	 esp, ebp
  0008e	5d		 pop	 ebp
  0008f	c2 10 00	 ret	 16			; 00000010H
??0Quaternion@Math@Engine@@QAE@MMMM@Z ENDP		; Engine::Math::Quaternion::Quaternion
_TEXT	ENDS
; Function compile flags: /Odtp /RTCsu /ZI
; File c:\repos\galaxy\galaxy\engine\math\vectors\quaternion.cpp
;	COMDAT ?__empty_global_delete@@YAXPAXI@Z
_TEXT	SEGMENT
___formal$ = 8						; size = 4
___formal$ = 12						; size = 4
?__empty_global_delete@@YAXPAXI@Z PROC			; __empty_global_delete, COMDAT

  00000	55		 push	 ebp
  00001	8b ec		 mov	 ebp, esp
  00003	81 ec c0 00 00
	00		 sub	 esp, 192		; 000000c0H
  00009	53		 push	 ebx
  0000a	56		 push	 esi
  0000b	57		 push	 edi
  0000c	8d bd 40 ff ff
	ff		 lea	 edi, DWORD PTR [ebp-192]
  00012	b9 30 00 00 00	 mov	 ecx, 48			; 00000030H
  00017	b8 cc cc cc cc	 mov	 eax, -858993460		; ccccccccH
  0001c	f3 ab		 rep stosd
  0001e	5f		 pop	 edi
  0001f	5e		 pop	 esi
  00020	5b		 pop	 ebx
  00021	8b e5		 mov	 esp, ebp
  00023	5d		 pop	 ebp
  00024	c3		 ret	 0
?__empty_global_delete@@YAXPAXI@Z ENDP			; __empty_global_delete
_TEXT	ENDS
; Function compile flags: /Odtp /RTCsu /ZI
; File c:\repos\galaxy\galaxy\engine\math\vectors\quaternion.cpp
;	COMDAT ?__empty_global_delete@@YAXPAX@Z
_TEXT	SEGMENT
___formal$ = 8						; size = 4
?__empty_global_delete@@YAXPAX@Z PROC			; __empty_global_delete, COMDAT

  00000	55		 push	 ebp
  00001	8b ec		 mov	 ebp, esp
  00003	81 ec c0 00 00
	00		 sub	 esp, 192		; 000000c0H
  00009	53		 push	 ebx
  0000a	56		 push	 esi
  0000b	57		 push	 edi
  0000c	8d bd 40 ff ff
	ff		 lea	 edi, DWORD PTR [ebp-192]
  00012	b9 30 00 00 00	 mov	 ecx, 48			; 00000030H
  00017	b8 cc cc cc cc	 mov	 eax, -858993460		; ccccccccH
  0001c	f3 ab		 rep stosd
  0001e	5f		 pop	 edi
  0001f	5e		 pop	 esi
  00020	5b		 pop	 ebx
  00021	8b e5		 mov	 esp, ebp
  00023	5d		 pop	 ebp
  00024	c3		 ret	 0
?__empty_global_delete@@YAXPAX@Z ENDP			; __empty_global_delete
_TEXT	ENDS
END
